target datalayout = "e-m:e-p270:32:32-p271:32:32-p272:64:64-i64:64-i128:128-f80:128-n8:16:32:64-S128"
target triple = "x86_64-pc-linux-gnu"

%struct.ainfo = type { double, double, i64 }

; Function Attrs: nounwind uwtable
define internal i32 @acmpf(ptr noundef %0, ptr noundef %1) #0 {
  %3 = alloca i32, align 4
  %4 = alloca ptr, align 8
  %5 = alloca ptr, align 8
  %6 = alloca ptr, align 8
  %7 = alloca ptr, align 8
  %8 = alloca double, align 8
  %9 = alloca double, align 8
  %10 = alloca i32, align 4
  store ptr %0, ptr %4, align 8, !tbaa !12
  store ptr %1, ptr %5, align 8, !tbaa !12
  call void @llvm.lifetime.start.p0(i64 8, ptr %6) #12
  %11 = load ptr, ptr %4, align 8, !tbaa !12
  %12 = load ptr, ptr %11, align 8, !tbaa !12
  store ptr %12, ptr %6, align 8, !tbaa !12
  call void @llvm.lifetime.start.p0(i64 8, ptr %7) #12
  %13 = load ptr, ptr %5, align 8, !tbaa !12
  %14 = load ptr, ptr %13, align 8, !tbaa !12
  store ptr %14, ptr %7, align 8, !tbaa !12
  call void @llvm.lifetime.start.p0(i64 8, ptr %8) #12
  %15 = load ptr, ptr %6, align 8, !tbaa !12
  %16 = getelementptr inbounds nuw %struct.ainfo, ptr %15, i32 0, i32 1
  %17 = load double, ptr %16, align 8, !tbaa !89
  %18 = load ptr, ptr %6, align 8, !tbaa !12
  %19 = getelementptr inbounds nuw %struct.ainfo, ptr %18, i32 0, i32 0
  %20 = load double, ptr %19, align 8, !tbaa !87
  %21 = fadd double %17, %20
  store double %21, ptr %8, align 8, !tbaa !27
  call void @llvm.lifetime.start.p0(i64 8, ptr %9) #12
  %22 = load ptr, ptr %7, align 8, !tbaa !12
  %23 = getelementptr inbounds nuw %struct.ainfo, ptr %22, i32 0, i32 1
  %24 = load double, ptr %23, align 8, !tbaa !89
  %25 = load ptr, ptr %7, align 8, !tbaa !12
  %26 = getelementptr inbounds nuw %struct.ainfo, ptr %25, i32 0, i32 0
  %27 = load double, ptr %26, align 8, !tbaa !87
  %28 = fadd double %24, %27
  store double %28, ptr %9, align 8, !tbaa !27
  %29 = load double, ptr %8, align 8, !tbaa !27
  %30 = load double, ptr %9, align 8, !tbaa !27
  %31 = fcmp olt double %29, %30
  br i1 %31, label %32, label %33

32:                                               ; preds = %2
  store i32 1, ptr %3, align 4
  store i32 1, ptr %10, align 4
  br label %39

33:                                               ; preds = %2
  %34 = load double, ptr %8, align 8, !tbaa !27
  %35 = load double, ptr %9, align 8, !tbaa !27
  %36 = fcmp ogt double %34, %35
  br i1 %36, label %37, label %38

37:                                               ; preds = %33
  store i32 -1, ptr %3, align 4
  store i32 1, ptr %10, align 4
  br label %39

38:                                               ; preds = %33
  store i32 0, ptr %3, align 4
  store i32 1, ptr %10, align 4
  br label %39

39:                                               ; preds = %38, %37, %32
  call void @llvm.lifetime.end.p0(i64 8, ptr %9) #12
  call void @llvm.lifetime.end.p0(i64 8, ptr %8) #12
  call void @llvm.lifetime.end.p0(i64 8, ptr %7) #12
  call void @llvm.lifetime.end.p0(i64 8, ptr %6) #12
  %40 = load i32, ptr %3, align 4
  ret i32 %40
}