; Function Attrs: mustprogress nofree norecurse nosync nounwind willreturn memory(read, inaccessiblemem: none) uwtable
define internal range(i32 -1, 2) i32 @acmpf(ptr noundef readonly captures(none) %0, ptr noundef readonly captures(none) %1) #10 {
  %3 = load ptr, ptr %0, align 8, !tbaa !66
  %4 = load ptr, ptr %1, align 8, !tbaa !66
  %5 = getelementptr inbounds nuw i8, ptr %3, i64 8
  %6 = load double, ptr %5, align 8, !tbaa !113
  %7 = load double, ptr %3, align 8, !tbaa !111
  %8 = fadd double %6, %7
  %9 = getelementptr inbounds nuw i8, ptr %4, i64 8
  %10 = load double, ptr %9, align 8, !tbaa !113
  %11 = load double, ptr %4, align 8, !tbaa !111
  %12 = fadd double %10, %11
  %13 = fcmp olt double %8, %12
  %14 = fcmp ogt double %8, %12
  %. = sext i1 %14 to i32
  %.0 = select i1 %13, i32 1, i32 %.
  ret i32 %.0
}